target datalayout = "e-m:e-p270:32:32-p271:32:32-p272:64:64-i64:64-i128:128-f80:128-n8:16:32:64-S128"
target triple = "x86_64-pc-linux-gnu"

%struct.FLAC__BitReader = type { ptr, i32, i32, i32, i32, i32, i32, i32, i32, i32, i32, i32, ptr, ptr }

; Function Attrs: nounwind sspstrong uwtable
define hidden i32 @FLAC__bitreader_read_raw_uint32(ptr noundef %0, ptr noundef %1, i32 noundef %2) #0 {
  %4 = alloca i32, align 4
  %5 = alloca ptr, align 8
  %6 = alloca ptr, align 8
  %7 = alloca i32, align 4
  %8 = alloca i32, align 4
  %9 = alloca i64, align 8
  %10 = alloca i64, align 8
  %11 = alloca i32, align 4
  %12 = alloca i32, align 4
  %13 = alloca i32, align 4
  %14 = alloca i64, align 8
  store ptr %0, ptr %5, align 8, !tbaa !3
  store ptr %1, ptr %6, align 8, !tbaa !33
  store i32 %2, ptr %7, align 4, !tbaa !32
  %15 = load i32, ptr %7, align 4, !tbaa !32
  %16 = icmp eq i32 %15, 0
  br i1 %16, label %17, label %19

17:                                               ; preds = %3
  %18 = load ptr, ptr %6, align 8, !tbaa !33
  store i32 0, ptr %18, align 4, !tbaa !32
  store i32 1, ptr %4, align 4
  br label %285

19:                                               ; preds = %3
  %20 = load ptr, ptr %5, align 8, !tbaa !3
  %21 = getelementptr inbounds nuw %struct.FLAC__BitReader, ptr %20, i32 0, i32 9
  %22 = load i32, ptr %21, align 8, !tbaa !19
  %23 = icmp ne i32 %22, 0
  br i1 %23, label %24, label %45

24:                                               ; preds = %19
  %25 = load ptr, ptr %5, align 8, !tbaa !3
  %26 = getelementptr inbounds nuw %struct.FLAC__BitReader, ptr %25, i32 0, i32 10
  %27 = load i32, ptr %26, align 4, !tbaa !20
  %28 = icmp ult i32 %27, -1
  br i1 %28, label %29, label %45

29:                                               ; preds = %24
  %30 = load ptr, ptr %5, align 8, !tbaa !3
  %31 = getelementptr inbounds nuw %struct.FLAC__BitReader, ptr %30, i32 0, i32 10
  %32 = load i32, ptr %31, align 4, !tbaa !20
  %33 = load i32, ptr %7, align 4, !tbaa !32
  %34 = icmp ult i32 %32, %33
  br i1 %34, label %35, label %38

35:                                               ; preds = %29
  %36 = load ptr, ptr %5, align 8, !tbaa !3
  %37 = getelementptr inbounds nuw %struct.FLAC__BitReader, ptr %36, i32 0, i32 10
  store i32 -1, ptr %37, align 4, !tbaa !20
  store i32 0, ptr %4, align 4
  br label %285

38:                                               ; preds = %29
  %39 = load i32, ptr %7, align 4, !tbaa !32
  %40 = load ptr, ptr %5, align 8, !tbaa !3
  %41 = getelementptr inbounds nuw %struct.FLAC__BitReader, ptr %40, i32 0, i32 10
  %42 = load i32, ptr %41, align 4, !tbaa !20
  %43 = sub i32 %42, %39
  store i32 %43, ptr %41, align 4, !tbaa !20
  br label %44

44:                                               ; preds = %38
  br label %45

45:                                               ; preds = %44, %24, %19
  br label %46

46:                                               ; preds = %71, %45
  %47 = load ptr, ptr %5, align 8, !tbaa !3
  %48 = getelementptr inbounds nuw %struct.FLAC__BitReader, ptr %47, i32 0, i32 2
  %49 = load i32, ptr %48, align 4, !tbaa !14
  %50 = load ptr, ptr %5, align 8, !tbaa !3
  %51 = getelementptr inbounds nuw %struct.FLAC__BitReader, ptr %50, i32 0, i32 4
  %52 = load i32, ptr %51, align 4, !tbaa !16
  %53 = sub i32 %49, %52
  %54 = mul i32 %53, 64
  %55 = load ptr, ptr %5, align 8, !tbaa !3
  %56 = getelementptr inbounds nuw %struct.FLAC__BitReader, ptr %55, i32 0, i32 3
  %57 = load i32, ptr %56, align 8, !tbaa !13
  %58 = mul i32 %57, 8
  %59 = add i32 %54, %58
  %60 = load ptr, ptr %5, align 8, !tbaa !3
  %61 = getelementptr inbounds nuw %struct.FLAC__BitReader, ptr %60, i32 0, i32 5
  %62 = load i32, ptr %61, align 8, !tbaa !15
  %63 = sub i32 %59, %62
  %64 = load i32, ptr %7, align 4, !tbaa !32
  %65 = icmp ult i32 %63, %64
  br i1 %65, label %66, label %72

66:                                               ; preds = %46
  %67 = load ptr, ptr %5, align 8, !tbaa !3
  %68 = call i32 @bitreader_read_from_client_(ptr noundef %67)
  %69 = icmp ne i32 %68, 0
  br i1 %69, label %71, label %70

70:                                               ; preds = %66
  store i32 0, ptr %4, align 4
  br label %285

71:                                               ; preds = %66
  br label %46, !llvm.loop !35

72:                                               ; preds = %46
  %73 = load ptr, ptr %5, align 8, !tbaa !3
  %74 = getelementptr inbounds nuw %struct.FLAC__BitReader, ptr %73, i32 0, i32 4
  %75 = load i32, ptr %74, align 4, !tbaa !16
  %76 = load ptr, ptr %5, align 8, !tbaa !3
  %77 = getelementptr inbounds nuw %struct.FLAC__BitReader, ptr %76, i32 0, i32 2
  %78 = load i32, ptr %77, align 4, !tbaa !14
  %79 = icmp ult i32 %75, %78
  br i1 %79, label %80, label %228

80:                                               ; preds = %72
  %81 = load ptr, ptr %5, align 8, !tbaa !3
  %82 = getelementptr inbounds nuw %struct.FLAC__BitReader, ptr %81, i32 0, i32 5
  %83 = load i32, ptr %82, align 8, !tbaa !15
  %84 = icmp ne i32 %83, 0
  br i1 %84, label %85, label %196

85:                                               ; preds = %80
  call void @llvm.lifetime.start.p0(i64 4, ptr %8) #10
  %86 = load ptr, ptr %5, align 8, !tbaa !3
  %87 = getelementptr inbounds nuw %struct.FLAC__BitReader, ptr %86, i32 0, i32 5
  %88 = load i32, ptr %87, align 8, !tbaa !15
  %89 = sub i32 64, %88
  store i32 %89, ptr %8, align 4, !tbaa !32
  call void @llvm.lifetime.start.p0(i64 8, ptr %9) #10
  %90 = load ptr, ptr %5, align 8, !tbaa !3
  %91 = getelementptr inbounds nuw %struct.FLAC__BitReader, ptr %90, i32 0, i32 0
  %92 = load ptr, ptr %91, align 8, !tbaa !8
  %93 = load ptr, ptr %5, align 8, !tbaa !3
  %94 = getelementptr inbounds nuw %struct.FLAC__BitReader, ptr %93, i32 0, i32 4
  %95 = load i32, ptr %94, align 4, !tbaa !16
  %96 = zext i32 %95 to i64
  %97 = getelementptr inbounds nuw i64, ptr %92, i64 %96
  %98 = load i64, ptr %97, align 8, !tbaa !28
  store i64 %98, ptr %9, align 8, !tbaa !28
  call void @llvm.lifetime.start.p0(i64 8, ptr %10) #10
  %99 = load ptr, ptr %5, align 8, !tbaa !3
  %100 = getelementptr inbounds nuw %struct.FLAC__BitReader, ptr %99, i32 0, i32 5
  %101 = load i32, ptr %100, align 8, !tbaa !15
  %102 = icmp ult i32 %101, 64
  br i1 %102, label %103, label %109

103:                                              ; preds = %85
  %104 = load ptr, ptr %5, align 8, !tbaa !3
  %105 = getelementptr inbounds nuw %struct.FLAC__BitReader, ptr %104, i32 0, i32 5
  %106 = load i32, ptr %105, align 8, !tbaa !15
  %107 = zext i32 %106 to i64
  %108 = lshr i64 -1, %107
  br label %110

109:                                              ; preds = %85
  br label %110

110:                                              ; preds = %109, %103
  %111 = phi i64 [ %108, %103 ], [ 0, %109 ]
  store i64 %111, ptr %10, align 8, !tbaa !28
  %112 = load i32, ptr %7, align 4, !tbaa !32
  %113 = load i32, ptr %8, align 4, !tbaa !32
  %114 = icmp ult i32 %112, %113
  br i1 %114, label %115, label %138

115:                                              ; preds = %110
  call void @llvm.lifetime.start.p0(i64 4, ptr %11) #10
  %116 = load i32, ptr %8, align 4, !tbaa !32
  %117 = load i32, ptr %7, align 4, !tbaa !32
  %118 = sub i32 %116, %117
  store i32 %118, ptr %11, align 4, !tbaa !32
  %119 = load i32, ptr %11, align 4, !tbaa !32
  %120 = icmp ult i32 %119, 64
  br i1 %120, label %121, label %129

121:                                              ; preds = %115
  %122 = load i64, ptr %9, align 8, !tbaa !28
  %123 = load i64, ptr %10, align 8, !tbaa !28
  %124 = and i64 %122, %123
  %125 = load i32, ptr %11, align 4, !tbaa !32
  %126 = zext i32 %125 to i64
  %127 = lshr i64 %124, %126
  %128 = trunc i64 %127 to i32
  br label %130

129:                                              ; preds = %115
  br label %130

130:                                              ; preds = %129, %121
  %131 = phi i32 [ %128, %121 ], [ 0, %129 ]
  %132 = load ptr, ptr %6, align 8, !tbaa !33
  store i32 %131, ptr %132, align 4, !tbaa !32
  %133 = load i32, ptr %7, align 4, !tbaa !32
  %134 = load ptr, ptr %5, align 8, !tbaa !3
  %135 = getelementptr inbounds nuw %struct.FLAC__BitReader, ptr %134, i32 0, i32 5
  %136 = load i32, ptr %135, align 8, !tbaa !15
  %137 = add i32 %136, %133
  store i32 %137, ptr %135, align 8, !tbaa !15
  store i32 1, ptr %4, align 4
  store i32 1, ptr %12, align 4
  call void @llvm.lifetime.end.p0(i64 4, ptr %11) #10
  br label %195

138:                                              ; preds = %110
  %139 = load i64, ptr %9, align 8, !tbaa !28
  %140 = load i64, ptr %10, align 8, !tbaa !28
  %141 = and i64 %139, %140
  %142 = trunc i64 %141 to i32
  %143 = load ptr, ptr %6, align 8, !tbaa !33
  store i32 %142, ptr %143, align 4, !tbaa !32
  %144 = load i32, ptr %8, align 4, !tbaa !32
  %145 = load i32, ptr %7, align 4, !tbaa !32
  %146 = sub i32 %145, %144
  store i32 %146, ptr %7, align 4, !tbaa !32
  %147 = load ptr, ptr %5, align 8, !tbaa !3
  %148 = getelementptr inbounds nuw %struct.FLAC__BitReader, ptr %147, i32 0, i32 4
  %149 = load i32, ptr %148, align 4, !tbaa !16
  %150 = add i32 %149, 1
  store i32 %150, ptr %148, align 4, !tbaa !16
  %151 = load ptr, ptr %5, align 8, !tbaa !3
  %152 = getelementptr inbounds nuw %struct.FLAC__BitReader, ptr %151, i32 0, i32 5
  store i32 0, ptr %152, align 8, !tbaa !15
  %153 = load i32, ptr %7, align 4, !tbaa !32
  %154 = icmp ne i32 %153, 0
  br i1 %154, label %155, label %194

155:                                              ; preds = %138
  call void @llvm.lifetime.start.p0(i64 4, ptr %13) #10
  %156 = load i32, ptr %7, align 4, !tbaa !32
  %157 = sub i32 64, %156
  store i32 %157, ptr %13, align 4, !tbaa !32
  %158 = load i32, ptr %7, align 4, !tbaa !32
  %159 = icmp ult i32 %158, 32
  br i1 %159, label %160, label %165

160:                                              ; preds = %155
  %161 = load ptr, ptr %6, align 8, !tbaa !33
  %162 = load i32, ptr %161, align 4, !tbaa !32
  %163 = load i32, ptr %7, align 4, !tbaa !32
  %164 = shl i32 %162, %163
  br label %166

165:                                              ; preds = %155
  br label %166

166:                                              ; preds = %165, %160
  %167 = phi i32 [ %164, %160 ], [ 0, %165 ]
  %168 = load ptr, ptr %6, align 8, !tbaa !33
  store i32 %167, ptr %168, align 4, !tbaa !32
  %169 = load i32, ptr %13, align 4, !tbaa !32
  %170 = icmp ult i32 %169, 64
  br i1 %170, label %171, label %185

171:                                              ; preds = %166
  %172 = load ptr, ptr %5, align 8, !tbaa !3
  %173 = getelementptr inbounds nuw %struct.FLAC__BitReader, ptr %172, i32 0, i32 0
  %174 = load ptr, ptr %173, align 8, !tbaa !8
  %175 = load ptr, ptr %5, align 8, !tbaa !3
  %176 = getelementptr inbounds nuw %struct.FLAC__BitReader, ptr %175, i32 0, i32 4
  %177 = load i32, ptr %176, align 4, !tbaa !16
  %178 = zext i32 %177 to i64
  %179 = getelementptr inbounds nuw i64, ptr %174, i64 %178
  %180 = load i64, ptr %179, align 8, !tbaa !28
  %181 = load i32, ptr %13, align 4, !tbaa !32
  %182 = zext i32 %181 to i64
  %183 = lshr i64 %180, %182
  %184 = trunc i64 %183 to i32
  br label %186

185:                                              ; preds = %166
  br label %186

186:                                              ; preds = %185, %171
  %187 = phi i32 [ %184, %171 ], [ 0, %185 ]
  %188 = load ptr, ptr %6, align 8, !tbaa !33
  %189 = load i32, ptr %188, align 4, !tbaa !32
  %190 = or i32 %189, %187
  store i32 %190, ptr %188, align 4, !tbaa !32
  %191 = load i32, ptr %7, align 4, !tbaa !32
  %192 = load ptr, ptr %5, align 8, !tbaa !3
  %193 = getelementptr inbounds nuw %struct.FLAC__BitReader, ptr %192, i32 0, i32 5
  store i32 %191, ptr %193, align 8, !tbaa !15
  call void @llvm.lifetime.end.p0(i64 4, ptr %13) #10
  br label %194

194:                                              ; preds = %186, %138
  store i32 1, ptr %4, align 4
  store i32 1, ptr %12, align 4
  br label %195

195:                                              ; preds = %194, %130
  call void @llvm.lifetime.end.p0(i64 8, ptr %10) #10
  call void @llvm.lifetime.end.p0(i64 8, ptr %9) #10
  call void @llvm.lifetime.end.p0(i64 4, ptr %8) #10
  br label %285

196:                                              ; preds = %80
  call void @llvm.lifetime.start.p0(i64 8, ptr %14) #10
  %197 = load ptr, ptr %5, align 8, !tbaa !3
  %198 = getelementptr inbounds nuw %struct.FLAC__BitReader, ptr %197, i32 0, i32 0
  %199 = load ptr, ptr %198, align 8, !tbaa !8
  %200 = load ptr, ptr %5, align 8, !tbaa !3
  %201 = getelementptr inbounds nuw %struct.FLAC__BitReader, ptr %200, i32 0, i32 4
  %202 = load i32, ptr %201, align 4, !tbaa !16
  %203 = zext i32 %202 to i64
  %204 = getelementptr inbounds nuw i64, ptr %199, i64 %203
  %205 = load i64, ptr %204, align 8, !tbaa !28
  store i64 %205, ptr %14, align 8, !tbaa !28
  %206 = load i32, ptr %7, align 4, !tbaa !32
  %207 = icmp ult i32 %206, 64
  br i1 %207, label %208, label %219

208:                                              ; preds = %196
  %209 = load i64, ptr %14, align 8, !tbaa !28
  %210 = load i32, ptr %7, align 4, !tbaa !32
  %211 = sub i32 64, %210
  %212 = zext i32 %211 to i64
  %213 = lshr i64 %209, %212
  %214 = trunc i64 %213 to i32
  %215 = load ptr, ptr %6, align 8, !tbaa !33
  store i32 %214, ptr %215, align 4, !tbaa !32
  %216 = load i32, ptr %7, align 4, !tbaa !32
  %217 = load ptr, ptr %5, align 8, !tbaa !3
  %218 = getelementptr inbounds nuw %struct.FLAC__BitReader, ptr %217, i32 0, i32 5
  store i32 %216, ptr %218, align 8, !tbaa !15
  store i32 1, ptr %4, align 4
  store i32 1, ptr %12, align 4
  br label %227

219:                                              ; preds = %196
  %220 = load i64, ptr %14, align 8, !tbaa !28
  %221 = trunc i64 %220 to i32
  %222 = load ptr, ptr %6, align 8, !tbaa !33
  store i32 %221, ptr %222, align 4, !tbaa !32
  %223 = load ptr, ptr %5, align 8, !tbaa !3
  %224 = getelementptr inbounds nuw %struct.FLAC__BitReader, ptr %223, i32 0, i32 4
  %225 = load i32, ptr %224, align 4, !tbaa !16
  %226 = add i32 %225, 1
  store i32 %226, ptr %224, align 4, !tbaa !16
  store i32 1, ptr %4, align 4
  store i32 1, ptr %12, align 4
  br label %227

227:                                              ; preds = %219, %208
  call void @llvm.lifetime.end.p0(i64 8, ptr %14) #10
  br label %285

228:                                              ; preds = %72
  %229 = load ptr, ptr %5, align 8, !tbaa !3
  %230 = getelementptr inbounds nuw %struct.FLAC__BitReader, ptr %229, i32 0, i32 5
  %231 = load i32, ptr %230, align 8, !tbaa !15
  %232 = icmp ne i32 %231, 0
  br i1 %232, label %233, label %264

233:                                              ; preds = %228
  %234 = load ptr, ptr %5, align 8, !tbaa !3
  %235 = getelementptr inbounds nuw %struct.FLAC__BitReader, ptr %234, i32 0, i32 0
  %236 = load ptr, ptr %235, align 8, !tbaa !8
  %237 = load ptr, ptr %5, align 8, !tbaa !3
  %238 = getelementptr inbounds nuw %struct.FLAC__BitReader, ptr %237, i32 0, i32 4
  %239 = load i32, ptr %238, align 4, !tbaa !16
  %240 = zext i32 %239 to i64
  %241 = getelementptr inbounds nuw i64, ptr %236, i64 %240
  %242 = load i64, ptr %241, align 8, !tbaa !28
  %243 = load ptr, ptr %5, align 8, !tbaa !3
  %244 = getelementptr inbounds nuw %struct.FLAC__BitReader, ptr %243, i32 0, i32 5
  %245 = load i32, ptr %244, align 8, !tbaa !15
  %246 = zext i32 %245 to i64
  %247 = lshr i64 -1, %246
  %248 = and i64 %242, %247
  %249 = load ptr, ptr %5, align 8, !tbaa !3
  %250 = getelementptr inbounds nuw %struct.FLAC__BitReader, ptr %249, i32 0, i32 5
  %251 = load i32, ptr %250, align 8, !tbaa !15
  %252 = sub i32 64, %251
  %253 = load i32, ptr %7, align 4, !tbaa !32
  %254 = sub i32 %252, %253
  %255 = zext i32 %254 to i64
  %256 = lshr i64 %248, %255
  %257 = trunc i64 %256 to i32
  %258 = load ptr, ptr %6, align 8, !tbaa !33
  store i32 %257, ptr %258, align 4, !tbaa !32
  %259 = load i32, ptr %7, align 4, !tbaa !32
  %260 = load ptr, ptr %5, align 8, !tbaa !3
  %261 = getelementptr inbounds nuw %struct.FLAC__BitReader, ptr %260, i32 0, i32 5
  %262 = load i32, ptr %261, align 8, !tbaa !15
  %263 = add i32 %262, %259
  store i32 %263, ptr %261, align 8, !tbaa !15
  store i32 1, ptr %4, align 4
  br label %285

264:                                              ; preds = %228
  %265 = load ptr, ptr %5, align 8, !tbaa !3
  %266 = getelementptr inbounds nuw %struct.FLAC__BitReader, ptr %265, i32 0, i32 0
  %267 = load ptr, ptr %266, align 8, !tbaa !8
  %268 = load ptr, ptr %5, align 8, !tbaa !3
  %269 = getelementptr inbounds nuw %struct.FLAC__BitReader, ptr %268, i32 0, i32 4
  %270 = load i32, ptr %269, align 4, !tbaa !16
  %271 = zext i32 %270 to i64
  %272 = getelementptr inbounds nuw i64, ptr %267, i64 %271
  %273 = load i64, ptr %272, align 8, !tbaa !28
  %274 = load i32, ptr %7, align 4, !tbaa !32
  %275 = sub i32 64, %274
  %276 = zext i32 %275 to i64
  %277 = lshr i64 %273, %276
  %278 = trunc i64 %277 to i32
  %279 = load ptr, ptr %6, align 8, !tbaa !33
  store i32 %278, ptr %279, align 4, !tbaa !32
  %280 = load i32, ptr %7, align 4, !tbaa !32
  %281 = load ptr, ptr %5, align 8, !tbaa !3
  %282 = getelementptr inbounds nuw %struct.FLAC__BitReader, ptr %281, i32 0, i32 5
  %283 = load i32, ptr %282, align 8, !tbaa !15
  %284 = add i32 %283, %280
  store i32 %284, ptr %282, align 8, !tbaa !15
  store i32 1, ptr %4, align 4
  br label %285

285:                                              ; preds = %264, %233, %227, %195, %70, %35, %17
  %286 = load i32, ptr %4, align 4
  ret i32 %286
}