; Function Attrs: nounwind sspstrong uwtable
define hidden range(i32 0, 2) i32 @FLAC__bitreader_read_raw_uint32(ptr noundef captures(none) %0, ptr noundef captures(none) %1, i32 noundef %2) local_unnamed_addr #9 {
  %4 = icmp eq i32 %2, 0
  br i1 %4, label %5, label %6

5:                                                ; preds = %3
  store i32 0, ptr %1, align 4, !tbaa !30
  br label %.loopexit

6:                                                ; preds = %3
  %7 = getelementptr inbounds nuw i8, ptr %0, i64 40
  %8 = load i32, ptr %7, align 8, !tbaa !10
  %.not = icmp eq i32 %8, 0
  br i1 %.not, label %17, label %9

9:                                                ; preds = %6
  %10 = getelementptr inbounds nuw i8, ptr %0, i64 44
  %11 = load i32, ptr %10, align 4, !tbaa !11
  %.not89 = icmp eq i32 %11, -1
  br i1 %.not89, label %17, label %12

12:                                               ; preds = %9
  %13 = icmp ult i32 %11, %2
  br i1 %13, label %14, label %15

14:                                               ; preds = %12
  store i32 -1, ptr %10, align 4, !tbaa !11
  br label %.loopexit

15:                                               ; preds = %12
  %16 = sub nuw i32 %11, %2
  store i32 %16, ptr %10, align 4, !tbaa !11
  br label %17

17:                                               ; preds = %15, %9, %6
  %18 = getelementptr inbounds nuw i8, ptr %0, i64 12
  %19 = getelementptr inbounds nuw i8, ptr %0, i64 20
  %20 = getelementptr inbounds nuw i8, ptr %0, i64 16
  %21 = getelementptr inbounds nuw i8, ptr %0, i64 24
  br label %22

22:                                               ; preds = %33, %17
  %23 = load i32, ptr %18, align 4, !tbaa !28
  %24 = load i32, ptr %19, align 4, !tbaa !16
  %25 = sub i32 %23, %24
  %26 = shl i32 %25, 6
  %27 = load i32, ptr %20, align 8, !tbaa !29
  %28 = shl i32 %27, 3
  %29 = add i32 %26, %28
  %30 = load i32, ptr %21, align 8, !tbaa !17
  %31 = sub i32 %29, %30
  %32 = icmp ult i32 %31, %2
  br i1 %32, label %33, label %35

33:                                               ; preds = %22
  %34 = tail call fastcc i32 @bitreader_read_from_client_(ptr noundef nonnull %0)
  %.not93 = icmp eq i32 %34, 0
  br i1 %.not93, label %.loopexit, label %22, !llvm.loop !31

35:                                               ; preds = %22
  %36 = icmp ult i32 %24, %23
  %.not91 = icmp eq i32 %30, 0
  br i1 %36, label %37, label %100

37:                                               ; preds = %35
  br i1 %.not91, label %85, label %38

38:                                               ; preds = %37
  %39 = sub i32 64, %30
  %40 = load ptr, ptr %0, align 8, !tbaa !3
  %41 = zext i32 %24 to i64
  %42 = getelementptr inbounds nuw i64, ptr %40, i64 %41
  %43 = load i64, ptr %42, align 8, !tbaa !21
  %44 = icmp ult i32 %30, 64
  %45 = zext nneg i32 %30 to i64
  %46 = lshr i64 -1, %45
  %47 = select i1 %44, i64 %46, i64 0
  %48 = icmp ult i32 %2, %39
  br i1 %48, label %49, label %59

49:                                               ; preds = %38
  %50 = sub nuw i32 %39, %2
  %51 = icmp ult i32 %50, 64
  %52 = and i64 %43, %47
  %53 = zext nneg i32 %50 to i64
  %54 = lshr i64 %52, %53
  %55 = trunc i64 %54 to i32
  %56 = select i1 %51, i32 %55, i32 0
  store i32 %56, ptr %1, align 4, !tbaa !30
  %57 = load i32, ptr %21, align 8, !tbaa !17
  %58 = add i32 %57, %2
  store i32 %58, ptr %21, align 8, !tbaa !17
  br label %.loopexit

59:                                               ; preds = %38
  %60 = and i64 %43, %47
  %61 = trunc i64 %60 to i32
  store i32 %61, ptr %1, align 4, !tbaa !30
  %62 = sub nuw i32 %2, %39
  %63 = load i32, ptr %19, align 4, !tbaa !16
  %64 = add i32 %63, 1
  store i32 %64, ptr %19, align 4, !tbaa !16
  store i32 0, ptr %21, align 8, !tbaa !17
  %.not92 = icmp eq i32 %2, %39
  br i1 %.not92, label %.loopexit, label %65

65:                                               ; preds = %59
  %66 = sub i32 64, %62
  %67 = icmp ult i32 %62, 32
  br i1 %67, label %68, label %71

68:                                               ; preds = %65
  %69 = load i32, ptr %1, align 4, !tbaa !30
  %70 = shl i32 %69, %62
  br label %71

71:                                               ; preds = %65, %68
  %72 = phi i32 [ %70, %68 ], [ 0, %65 ]
  store i32 %72, ptr %1, align 4, !tbaa !30
  %73 = icmp ult i32 %66, 64
  br i1 %73, label %74, label %82

74:                                               ; preds = %71
  %75 = load i32, ptr %19, align 4, !tbaa !16
  %76 = zext i32 %75 to i64
  %77 = getelementptr inbounds nuw i64, ptr %40, i64 %76
  %78 = load i64, ptr %77, align 8, !tbaa !21
  %79 = zext nneg i32 %66 to i64
  %80 = lshr i64 %78, %79
  %81 = trunc i64 %80 to i32
  br label %82

82:                                               ; preds = %71, %74
  %83 = phi i32 [ %81, %74 ], [ 0, %71 ]
  %84 = or i32 %83, %72
  store i32 %84, ptr %1, align 4, !tbaa !30
  store i32 %62, ptr %21, align 8, !tbaa !17
  br label %.loopexit

85:                                               ; preds = %37
  %86 = load ptr, ptr %0, align 8, !tbaa !3
  %87 = zext i32 %24 to i64
  %88 = getelementptr inbounds nuw i64, ptr %86, i64 %87
  %89 = load i64, ptr %88, align 8, !tbaa !21
  %90 = icmp ult i32 %2, 64
  br i1 %90, label %91, label %96

91:                                               ; preds = %85
  %92 = sub nuw nsw i32 64, %2
  %93 = zext nneg i32 %92 to i64
  %94 = lshr i64 %89, %93
  %95 = trunc i64 %94 to i32
  store i32 %95, ptr %1, align 4, !tbaa !30
  store i32 %2, ptr %21, align 8, !tbaa !17
  br label %.loopexit

96:                                               ; preds = %85
  %97 = trunc i64 %89 to i32
  store i32 %97, ptr %1, align 4, !tbaa !30
  %98 = load i32, ptr %19, align 4, !tbaa !16
  %99 = add i32 %98, 1
  store i32 %99, ptr %19, align 4, !tbaa !16
  br label %.loopexit

100:                                              ; preds = %35
  %101 = load ptr, ptr %0, align 8, !tbaa !3
  %102 = zext i32 %24 to i64
  %103 = getelementptr inbounds nuw i64, ptr %101, i64 %102
  %104 = load i64, ptr %103, align 8, !tbaa !21
  br i1 %.not91, label %116, label %105

105:                                              ; preds = %100
  %106 = zext nneg i32 %30 to i64
  %107 = lshr i64 -1, %106
  %108 = and i64 %104, %107
  %109 = add i32 %2, %30
  %110 = sub i32 64, %109
  %111 = zext nneg i32 %110 to i64
  %112 = lshr i64 %108, %111
  %113 = trunc i64 %112 to i32
  store i32 %113, ptr %1, align 4, !tbaa !30
  %114 = load i32, ptr %21, align 8, !tbaa !17
  %115 = add i32 %114, %2
  store i32 %115, ptr %21, align 8, !tbaa !17
  br label %.loopexit

116:                                              ; preds = %100
  %117 = sub i32 64, %2
  %118 = zext nneg i32 %117 to i64
  %119 = lshr i64 %104, %118
  %120 = trunc i64 %119 to i32
  store i32 %120, ptr %1, align 4, !tbaa !30
  %121 = load i32, ptr %21, align 8, !tbaa !17
  %122 = add i32 %121, %2
  store i32 %122, ptr %21, align 8, !tbaa !17
  br label %.loopexit

.loopexit:                                        ; preds = %33, %91, %96, %49, %82, %59, %116, %105, %14, %5
  %.0 = phi i32 [ 1, %5 ], [ 0, %14 ], [ 1, %105 ], [ 1, %116 ], [ 1, %59 ], [ 1, %82 ], [ 1, %49 ], [ 1, %96 ], [ 1, %91 ], [ 0, %33 ]
  ret i32 %.0
}